#include <math.h>
#include <stdio.h>
#include <stdlib.h>
#include <string.h>

int main()
{
	int i,j,m,a,b,t,s,n=0;
	scanf("%d",&m);
	for(i=3;i<=m/2;i++)
	{
		n=n+1;
		t=0;
		s=0;
		a=i;
		b=m-i;
		for(j=2;j<a;j++)
		{
			if(a%j==0)
				t=t+1;
		}
		for(j=2;j<b;j++)
		{
			if(b%j==0)
				s=s+1;
		}
		if(s==0&&t==0)
		{
			if(n==1)
				printf("%d %d",a,b);
			else
				printf("\n%d %d",a,b);
		}
	}
	return 0;
}