; ModuleID = '43/1778.c'
source_filename = "43/1778.c"
target datalayout = "e-m:e-p270:32:32-p271:32:32-p272:64:64-i64:64-f80:128-n8:16:32:64-S128"
target triple = "x86_64-pc-linux-gnu"

@.str = private unnamed_addr constant [3 x i8] c"%d\00", align 1
@.str.1 = private unnamed_addr constant [6 x i8] c"%d %d\00", align 1
@.str.2 = private unnamed_addr constant [7 x i8] c"\0A%d %d\00", align 1

; Function Attrs: noinline nounwind uwtable
define dso_local i32 @main() #0 {
  %1 = alloca i32, align 4
  %2 = alloca i32, align 4
  %3 = alloca i32, align 4
  %4 = alloca i32, align 4
  %5 = alloca i32, align 4
  %6 = alloca i32, align 4
  %7 = alloca i32, align 4
  %8 = alloca i32, align 4
  %9 = alloca i32, align 4
  store i32 0, i32* %1, align 4
  store i32 0, i32* %9, align 4
  %10 = call i32 (i8*, ...) @__isoc99_scanf(i8* getelementptr inbounds ([3 x i8], [3 x i8]* @.str, i64 0, i64 0), i32* %4)
  store i32 3, i32* %2, align 4
  br label %11

11:                                               ; preds = %75, %0
  %12 = load i32, i32* %2, align 4
  %13 = load i32, i32* %4, align 4
  %14 = sdiv i32 %13, 2
  %15 = icmp sle i32 %12, %14
  br i1 %15, label %16, label %78

16:                                               ; preds = %11
  %17 = load i32, i32* %9, align 4
  %18 = add nsw i32 %17, 1
  store i32 %18, i32* %9, align 4
  store i32 0, i32* %7, align 4
  store i32 0, i32* %8, align 4
  %19 = load i32, i32* %2, align 4
  store i32 %19, i32* %5, align 4
  %20 = load i32, i32* %4, align 4
  %21 = load i32, i32* %2, align 4
  %22 = sub nsw i32 %20, %21
  store i32 %22, i32* %6, align 4
  store i32 2, i32* %3, align 4
  br label %23

23:                                               ; preds = %36, %16
  %24 = load i32, i32* %3, align 4
  %25 = load i32, i32* %5, align 4
  %26 = icmp slt i32 %24, %25
  br i1 %26, label %27, label %39

27:                                               ; preds = %23
  %28 = load i32, i32* %5, align 4
  %29 = load i32, i32* %3, align 4
  %30 = srem i32 %28, %29
  %31 = icmp eq i32 %30, 0
  br i1 %31, label %32, label %35

32:                                               ; preds = %27
  %33 = load i32, i32* %7, align 4
  %34 = add nsw i32 %33, 1
  store i32 %34, i32* %7, align 4
  br label %35

35:                                               ; preds = %32, %27
  br label %36

36:                                               ; preds = %35
  %37 = load i32, i32* %3, align 4
  %38 = add nsw i32 %37, 1
  store i32 %38, i32* %3, align 4
  br label %23

39:                                               ; preds = %23
  store i32 2, i32* %3, align 4
  br label %40

40:                                               ; preds = %53, %39
  %41 = load i32, i32* %3, align 4
  %42 = load i32, i32* %6, align 4
  %43 = icmp slt i32 %41, %42
  br i1 %43, label %44, label %56

44:                                               ; preds = %40
  %45 = load i32, i32* %6, align 4
  %46 = load i32, i32* %3, align 4
  %47 = srem i32 %45, %46
  %48 = icmp eq i32 %47, 0
  br i1 %48, label %49, label %52

49:                                               ; preds = %44
  %50 = load i32, i32* %8, align 4
  %51 = add nsw i32 %50, 1
  store i32 %51, i32* %8, align 4
  br label %52

52:                                               ; preds = %49, %44
  br label %53

53:                                               ; preds = %52
  %54 = load i32, i32* %3, align 4
  %55 = add nsw i32 %54, 1
  store i32 %55, i32* %3, align 4
  br label %40

56:                                               ; preds = %40
  %57 = load i32, i32* %8, align 4
  %58 = icmp eq i32 %57, 0
  br i1 %58, label %59, label %74

59:                                               ; preds = %56
  %60 = load i32, i32* %7, align 4
  %61 = icmp eq i32 %60, 0
  br i1 %61, label %62, label %74

62:                                               ; preds = %59
  %63 = load i32, i32* %9, align 4
  %64 = icmp eq i32 %63, 1
  br i1 %64, label %65, label %69

65:                                               ; preds = %62
  %66 = load i32, i32* %5, align 4
  %67 = load i32, i32* %6, align 4
  %68 = call i32 (i8*, ...) @printf(i8* getelementptr inbounds ([6 x i8], [6 x i8]* @.str.1, i64 0, i64 0), i32 %66, i32 %67)
  br label %73

69:                                               ; preds = %62
  %70 = load i32, i32* %5, align 4
  %71 = load i32, i32* %6, align 4
  %72 = call i32 (i8*, ...) @printf(i8* getelementptr inbounds ([7 x i8], [7 x i8]* @.str.2, i64 0, i64 0), i32 %70, i32 %71)
  br label %73

73:                                               ; preds = %69, %65
  br label %74

74:                                               ; preds = %73, %59, %56
  br label %75

75:                                               ; preds = %74
  %76 = load i32, i32* %2, align 4
  %77 = add nsw i32 %76, 1
  store i32 %77, i32* %2, align 4
  br label %11

78:                                               ; preds = %11
  ret i32 0
}

declare dso_local i32 @__isoc99_scanf(i8*, ...) #1

declare dso_local i32 @printf(i8*, ...) #1


!llvm.module.flags = !{!0}
!llvm.ident = !{!1}

!0 = !{i32 1, !"wchar_size", i32 4}
!1 = !{!"clang version 10.0.0-4ubuntu1 "}
